target datalayout = "e-m:e-p270:32:32-p271:32:32-p272:64:64-i64:64-i128:128-f80:128-n8:16:32:64-S128"
target triple = "x86_64-pc-linux-gnu"

%"struct.Luau::CodeGen::A64::RegisterA64" = type { i8 }
%"struct.Luau::CodeGen::Label" = type { i32, i32 }
%class.anon.233 = type { i8 }

@_ZN4Luau7CodeGen3A64L2x0E = internal constant %"struct.Luau::CodeGen::A64::RegisterA64" { i8 2 }, align 1
@_ZN4Luau7CodeGen3A64L2x1E = internal constant %"struct.Luau::CodeGen::A64::RegisterA64" { i8 10 }, align 1

; Function Attrs: mustprogress nounwind uwtable
define linkonce_odr dso_local void @_ZN4Luau7CodeGen5LabelC2Ev(ptr noundef nonnull align 4 dereferenceable(8) %0) unnamed_addr #1 comdat align 2 {
  %2 = alloca ptr, align 8
  store ptr %0, ptr %2, align 8
  %3 = load ptr, ptr %2, align 8
  %4 = getelementptr inbounds %"struct.Luau::CodeGen::Label", ptr %3, i32 0, i32 0
  store i32 0, ptr %4, align 4
  %5 = getelementptr inbounds %"struct.Luau::CodeGen::Label", ptr %3, i32 0, i32 1
  store i32 -1, ptr %5, align 4
  ret void
}

; Function Attrs: mustprogress uwtable
define internal void @_ZZN12_GLOBAL__N_121DOCTEST_ANON_CLASS_271fEvENKUlRN4Luau7CodeGen3A6418AssemblyBuilderA64EE0_clES5_(ptr noundef nonnull align 1 dereferenceable(1) %0, ptr noundef nonnull align 8 dereferenceable(176) %1) #4 align 2 {
  %3 = alloca ptr, align 8
  %4 = alloca ptr, align 8
  %5 = alloca %"struct.Luau::CodeGen::Label", align 4
  %6 = alloca %"struct.Luau::CodeGen::A64::RegisterA64", align 1
  %7 = alloca %"struct.Luau::CodeGen::A64::RegisterA64", align 1
  store ptr %0, ptr %3, align 8
  store ptr %1, ptr %4, align 8
  call void @_ZN4Luau7CodeGen5LabelC2Ev(ptr noundef nonnull align 4 dereferenceable(8) %5) #11
  %8 = load ptr, ptr %4, align 8
  call void @_ZN4Luau7CodeGen3A6418AssemblyBuilderA641bENS1_12ConditionA64ERNS0_5LabelE(ptr noundef nonnull align 8 dereferenceable(176) %8, i32 noundef 0, ptr noundef nonnull align 4 dereferenceable(8) %5)
  %9 = load ptr, ptr %4, align 8
  call void @llvm.memcpy.p0.p0.i64(ptr align 1 %6, ptr align 1 @_ZN4Luau7CodeGen3A64L2x0E, i64 1, i1 false)
  call void @llvm.memcpy.p0.p0.i64(ptr align 1 %7, ptr align 1 @_ZN4Luau7CodeGen3A64L2x1E, i64 1, i1 false)
  %10 = getelementptr inbounds %"struct.Luau::CodeGen::A64::RegisterA64", ptr %6, i32 0, i32 0
  %11 = load i8, ptr %10, align 1
  %12 = getelementptr inbounds %"struct.Luau::CodeGen::A64::RegisterA64", ptr %7, i32 0, i32 0
  %13 = load i8, ptr %12, align 1
  call void @_ZN4Luau7CodeGen3A6418AssemblyBuilderA643movENS1_11RegisterA64ES3_(ptr noundef nonnull align 8 dereferenceable(176) %9, i8 %11, i8 %13)
  %14 = load ptr, ptr %4, align 8
  call void @_ZN4Luau7CodeGen3A6418AssemblyBuilderA648setLabelERNS0_5LabelE(ptr noundef nonnull align 8 dereferenceable(176) %14, ptr noundef nonnull align 4 dereferenceable(8) %5)
  ret void
}

; Function Attrs: mustprogress uwtable
define internal void @_ZZN12_GLOBAL__N_121DOCTEST_ANON_CLASS_271fEvENUlRN4Luau7CodeGen3A6418AssemblyBuilderA64EE0_8__invokeES5_(ptr noundef nonnull align 8 dereferenceable(176) %0) #4 align 2 {
  %2 = alloca ptr, align 8
  %3 = alloca %class.anon.233, align 1
  store ptr %0, ptr %2, align 8
  %4 = load ptr, ptr %2, align 8
  call void @_ZZN12_GLOBAL__N_121DOCTEST_ANON_CLASS_271fEvENKUlRN4Luau7CodeGen3A6418AssemblyBuilderA64EE0_clES5_(ptr noundef nonnull align 1 dereferenceable(1) %3, ptr noundef nonnull align 8 dereferenceable(176) %4)
  ret void
}